target datalayout = "e-m:e-p270:32:32-p271:32:32-p272:64:64-i64:64-i128:128-f80:128-n8:16:32:64-S128"
target triple = "x86_64-pc-linux-gnu"

%struct.x509_st = type { ptr, ptr, ptr, i32, i32, ptr, %struct.crypto_ex_data_st, i64, i64, i64, i64, i64, i64, ptr, ptr, ptr, ptr, ptr, ptr, [20 x i8], ptr }
%struct.crypto_ex_data_st = type { ptr }
%struct.x509_cinf_st = type { ptr, ptr, ptr, ptr, ptr, ptr, ptr, ptr, ptr, ptr, %struct.ASN1_ENCODING_st }
%struct.ASN1_ENCODING_st = type { ptr, i64, i32 }
%struct.env_md_ctx_st = type { ptr, ptr, ptr, ptr }
%struct.asn1_string_st = type { i32, i32, ptr, i64 }

; Function Attrs: nounwind uwtable
define hidden i64 @X509_issuer_and_serial_hash(ptr noundef %0) #0 {
  %2 = alloca ptr, align 8
  %3 = alloca i64, align 8
  %4 = alloca %struct.env_md_ctx_st, align 8
  %5 = alloca [16 x i8], align 16
  %6 = alloca ptr, align 8
  store ptr %0, ptr %2, align 8, !tbaa !6
  call void @llvm.lifetime.start.p0(i64 8, ptr %3) #5
  store i64 0, ptr %3, align 8, !tbaa !44
  call void @llvm.lifetime.start.p0(i64 32, ptr %4) #5
  call void @llvm.lifetime.start.p0(i64 16, ptr %5) #5
  call void @llvm.lifetime.start.p0(i64 8, ptr %6) #5
  call void @EVP_MD_CTX_init(ptr noundef %4)
  %7 = load ptr, ptr %2, align 8, !tbaa !6
  %8 = getelementptr inbounds nuw %struct.x509_st, ptr %7, i32 0, i32 0
  %9 = load ptr, ptr %8, align 8, !tbaa !11
  %10 = getelementptr inbounds nuw %struct.x509_cinf_st, ptr %9, i32 0, i32 3
  %11 = load ptr, ptr %10, align 8, !tbaa !36
  %12 = call ptr @X509_NAME_oneline(ptr noundef %11, ptr noundef null, i32 noundef 0)
  store ptr %12, ptr %6, align 8, !tbaa !45
  %13 = call ptr @EVP_md5()
  %14 = call i32 @EVP_DigestInit_ex(ptr noundef %4, ptr noundef %13, ptr noundef null)
  %15 = icmp ne i32 %14, 0
  br i1 %15, label %17, label %16

16:                                               ; preds = %1
  br label %69

17:                                               ; preds = %1
  %18 = load ptr, ptr %6, align 8, !tbaa !45
  %19 = load ptr, ptr %6, align 8, !tbaa !45
  %20 = call i64 @strlen(ptr noundef %19) #6
  %21 = call i32 @EVP_DigestUpdate(ptr noundef %4, ptr noundef %18, i64 noundef %20)
  %22 = icmp ne i32 %21, 0
  br i1 %22, label %24, label %23

23:                                               ; preds = %17
  br label %69

24:                                               ; preds = %17
  %25 = load ptr, ptr %6, align 8, !tbaa !45
  call void @free(ptr noundef %25) #5
  %26 = load ptr, ptr %2, align 8, !tbaa !6
  %27 = getelementptr inbounds nuw %struct.x509_st, ptr %26, i32 0, i32 0
  %28 = load ptr, ptr %27, align 8, !tbaa !11
  %29 = getelementptr inbounds nuw %struct.x509_cinf_st, ptr %28, i32 0, i32 1
  %30 = load ptr, ptr %29, align 8, !tbaa !28
  %31 = getelementptr inbounds nuw %struct.asn1_string_st, ptr %30, i32 0, i32 2
  %32 = load ptr, ptr %31, align 8, !tbaa !46
  %33 = load ptr, ptr %2, align 8, !tbaa !6
  %34 = getelementptr inbounds nuw %struct.x509_st, ptr %33, i32 0, i32 0
  %35 = load ptr, ptr %34, align 8, !tbaa !11
  %36 = getelementptr inbounds nuw %struct.x509_cinf_st, ptr %35, i32 0, i32 1
  %37 = load ptr, ptr %36, align 8, !tbaa !28
  %38 = getelementptr inbounds nuw %struct.asn1_string_st, ptr %37, i32 0, i32 0
  %39 = load i32, ptr %38, align 8, !tbaa !48
  %40 = sext i32 %39 to i64
  %41 = call i32 @EVP_DigestUpdate(ptr noundef %4, ptr noundef %32, i64 noundef %40)
  %42 = icmp ne i32 %41, 0
  br i1 %42, label %44, label %43

43:                                               ; preds = %24
  br label %69

44:                                               ; preds = %24
  %45 = getelementptr inbounds [16 x i8], ptr %5, i64 0, i64 0
  %46 = call i32 @EVP_DigestFinal_ex(ptr noundef %4, ptr noundef %45, ptr noundef null)
  %47 = icmp ne i32 %46, 0
  br i1 %47, label %49, label %48

48:                                               ; preds = %44
  br label %69

49:                                               ; preds = %44
  %50 = getelementptr inbounds [16 x i8], ptr %5, i64 0, i64 0
  %51 = load i8, ptr %50, align 16, !tbaa !49
  %52 = zext i8 %51 to i64
  %53 = getelementptr inbounds [16 x i8], ptr %5, i64 0, i64 1
  %54 = load i8, ptr %53, align 1, !tbaa !49
  %55 = zext i8 %54 to i64
  %56 = shl i64 %55, 8
  %57 = or i64 %52, %56
  %58 = getelementptr inbounds [16 x i8], ptr %5, i64 0, i64 2
  %59 = load i8, ptr %58, align 2, !tbaa !49
  %60 = zext i8 %59 to i64
  %61 = shl i64 %60, 16
  %62 = or i64 %57, %61
  %63 = getelementptr inbounds [16 x i8], ptr %5, i64 0, i64 3
  %64 = load i8, ptr %63, align 1, !tbaa !49
  %65 = zext i8 %64 to i64
  %66 = shl i64 %65, 24
  %67 = or i64 %62, %66
  %68 = and i64 %67, 4294967295
  store i64 %68, ptr %3, align 8, !tbaa !44
  br label %69

69:                                               ; preds = %49, %48, %43, %23, %16
  %70 = call i32 @EVP_MD_CTX_cleanup(ptr noundef %4)
  %71 = load i64, ptr %3, align 8, !tbaa !44
  call void @llvm.lifetime.end.p0(i64 8, ptr %6) #5
  call void @llvm.lifetime.end.p0(i64 16, ptr %5) #5
  call void @llvm.lifetime.end.p0(i64 32, ptr %4) #5
  call void @llvm.lifetime.end.p0(i64 8, ptr %3) #5
  ret i64 %71
}