; Function Attrs: nounwind uwtable
define hidden range(i64 0, 4294967296) i64 @X509_issuer_and_serial_hash(ptr noundef readonly captures(none) %0) local_unnamed_addr #0 {
  %2 = alloca %struct.env_md_ctx_st, align 8
  %3 = alloca [16 x i8], align 16
  call void @llvm.lifetime.start.p0(i64 32, ptr nonnull %2) #8
  call void @llvm.lifetime.start.p0(i64 16, ptr nonnull %3) #8
  call void @EVP_MD_CTX_init(ptr noundef nonnull %2) #8
  %4 = load ptr, ptr %0, align 8, !tbaa !6
  %5 = getelementptr inbounds nuw i8, ptr %4, i64 24
  %6 = load ptr, ptr %5, align 8, !tbaa !32
  %7 = call ptr @X509_NAME_oneline(ptr noundef %6, ptr noundef null, i32 noundef 0) #8
  %8 = call ptr @EVP_md5() #8
  %9 = call i32 @EVP_DigestInit_ex(ptr noundef nonnull %2, ptr noundef %8, ptr noundef null) #8
  %.not = icmp eq i32 %9, 0
  br i1 %.not, label %27, label %10

10:                                               ; preds = %1
  %11 = call i64 @strlen(ptr noundef nonnull dereferenceable(1) %7) #9
  %12 = call i32 @EVP_DigestUpdate(ptr noundef nonnull %2, ptr noundef nonnull %7, i64 noundef %11) #8
  %.not6 = icmp eq i32 %12, 0
  br i1 %.not6, label %27, label %13

13:                                               ; preds = %10
  call void @free(ptr noundef nonnull %7) #8
  %14 = load ptr, ptr %0, align 8, !tbaa !6
  %15 = getelementptr inbounds nuw i8, ptr %14, i64 8
  %16 = load ptr, ptr %15, align 8, !tbaa !25
  %17 = getelementptr inbounds nuw i8, ptr %16, i64 8
  %18 = load ptr, ptr %17, align 8, !tbaa !39
  %19 = load i32, ptr %16, align 8, !tbaa !41
  %20 = sext i32 %19 to i64
  %21 = call i32 @EVP_DigestUpdate(ptr noundef nonnull %2, ptr noundef %18, i64 noundef %20) #8
  %.not7 = icmp eq i32 %21, 0
  br i1 %.not7, label %27, label %22

22:                                               ; preds = %13
  %23 = call i32 @EVP_DigestFinal_ex(ptr noundef nonnull %2, ptr noundef nonnull %3, ptr noundef null) #8
  %.not8 = icmp eq i32 %23, 0
  br i1 %.not8, label %27, label %24

24:                                               ; preds = %22
  %25 = load i32, ptr %3, align 16
  %26 = zext i32 %25 to i64
  br label %27

27:                                               ; preds = %22, %13, %10, %1, %24
  %.0 = phi i64 [ %26, %24 ], [ 0, %22 ], [ 0, %13 ], [ 0, %10 ], [ 0, %1 ]
  %28 = call i32 @EVP_MD_CTX_cleanup(ptr noundef nonnull %2) #8
  call void @llvm.lifetime.end.p0(i64 16, ptr nonnull %3) #8
  call void @llvm.lifetime.end.p0(i64 32, ptr nonnull %2) #8
  ret i64 %.0
}